target datalayout = "e-m:e-p270:32:32-p271:32:32-p272:64:64-i64:64-i128:128-f80:128-n8:16:32:64-S128"
target triple = "x86_64-pc-linux-gnu"

%"struct.duckdb_libpgquery::pg_parser_state_str" = type { i32, i32, [8192 x i8], i64, i64, ptr, i64 }
%"struct.duckdb_libpgquery::PGNode" = type { i32 }

@_ZN17duckdb_libpgqueryL15pg_parser_stateE = internal thread_local global %"struct.duckdb_libpgquery::pg_parser_state_str" zeroinitializer, align 8

; Function Attrs: mustprogress uwtable
define hidden noundef ptr @_ZN17duckdb_libpgquery6pallocEm(i64 noundef %0) #0 {
  %2 = alloca i64, align 8
  %3 = alloca i64, align 8
  %4 = alloca i64, align 8
  %5 = alloca ptr, align 8
  %6 = alloca ptr, align 8
  store i64 %0, ptr %2, align 8, !tbaa !3
  call void @llvm.lifetime.start.p0(i64 8, ptr %3) #13
  %7 = load i64, ptr %2, align 8, !tbaa !3
  %8 = add i64 %7, 8
  store i64 %8, ptr %3, align 8, !tbaa !3
  call void @llvm.lifetime.start.p0(i64 8, ptr %4) #13
  %9 = load i64, ptr %3, align 8, !tbaa !3
  %10 = add i64 %9, 7
  %11 = udiv i64 %10, 8
  %12 = mul i64 %11, 8
  store i64 %12, ptr %4, align 8, !tbaa !3
  %13 = call align 8 ptr @llvm.threadlocal.address.p0(ptr align 8 @_ZN17duckdb_libpgqueryL15pg_parser_stateE)
  %14 = getelementptr inbounds nuw %"struct.duckdb_libpgquery::pg_parser_state_str", ptr %13, i32 0, i32 3
  %15 = load i64, ptr %14, align 8, !tbaa !7
  %16 = load i64, ptr %4, align 8, !tbaa !3
  %17 = add i64 %15, %16
  %18 = icmp ugt i64 %17, 10240
  br i1 %18, label %19, label %22

19:                                               ; preds = %1
  %20 = call align 8 ptr @llvm.threadlocal.address.p0(ptr align 8 @_ZN17duckdb_libpgqueryL15pg_parser_stateE)
  %21 = load i64, ptr %4, align 8, !tbaa !3
  call void @_ZN17duckdb_libpgqueryL12allocate_newEPNS_19pg_parser_state_strEm(ptr noundef %20, i64 noundef %21)
  br label %22

22:                                               ; preds = %19, %1
  call void @llvm.lifetime.start.p0(i64 8, ptr %5) #13
  %23 = call align 8 ptr @llvm.threadlocal.address.p0(ptr align 8 @_ZN17duckdb_libpgqueryL15pg_parser_stateE)
  %24 = getelementptr inbounds nuw %"struct.duckdb_libpgquery::pg_parser_state_str", ptr %23, i32 0, i32 5
  %25 = load ptr, ptr %24, align 8, !tbaa !12
  %26 = call align 8 ptr @llvm.threadlocal.address.p0(ptr align 8 @_ZN17duckdb_libpgqueryL15pg_parser_stateE)
  %27 = getelementptr inbounds nuw %"struct.duckdb_libpgquery::pg_parser_state_str", ptr %26, i32 0, i32 4
  %28 = load i64, ptr %27, align 8, !tbaa !13
  %29 = sub i64 %28, 1
  %30 = getelementptr inbounds nuw ptr, ptr %25, i64 %29
  %31 = load ptr, ptr %30, align 8, !tbaa !14
  %32 = call align 8 ptr @llvm.threadlocal.address.p0(ptr align 8 @_ZN17duckdb_libpgqueryL15pg_parser_stateE)
  %33 = getelementptr inbounds nuw %"struct.duckdb_libpgquery::pg_parser_state_str", ptr %32, i32 0, i32 3
  %34 = load i64, ptr %33, align 8, !tbaa !7
  %35 = getelementptr inbounds nuw i8, ptr %31, i64 %34
  store ptr %35, ptr %5, align 8, !tbaa !14
  %36 = load ptr, ptr %5, align 8, !tbaa !14
  call void @llvm.memcpy.p0.p0.i64(ptr align 1 %36, ptr align 8 %2, i64 8, i1 false)
  call void @llvm.lifetime.start.p0(i64 8, ptr %6) #13
  %37 = load ptr, ptr %5, align 8, !tbaa !14
  %38 = getelementptr inbounds nuw i8, ptr %37, i64 8
  store ptr %38, ptr %6, align 8, !tbaa !14
  %39 = load ptr, ptr %6, align 8, !tbaa !14
  %40 = load i64, ptr %2, align 8, !tbaa !3
  call void @llvm.memset.p0.i64(ptr align 1 %39, i8 0, i64 %40, i1 false)
  %41 = load i64, ptr %4, align 8, !tbaa !3
  %42 = call align 8 ptr @llvm.threadlocal.address.p0(ptr align 8 @_ZN17duckdb_libpgqueryL15pg_parser_stateE)
  %43 = getelementptr inbounds nuw %"struct.duckdb_libpgquery::pg_parser_state_str", ptr %42, i32 0, i32 3
  %44 = load i64, ptr %43, align 8, !tbaa !7
  %45 = add i64 %44, %41
  store i64 %45, ptr %43, align 8, !tbaa !7
  %46 = load ptr, ptr %6, align 8, !tbaa !14
  call void @llvm.lifetime.end.p0(i64 8, ptr %6) #13
  call void @llvm.lifetime.end.p0(i64 8, ptr %5) #13
  call void @llvm.lifetime.end.p0(i64 8, ptr %4) #13
  call void @llvm.lifetime.end.p0(i64 8, ptr %3) #13
  ret ptr %46
}

; Function Attrs: mustprogress uwtable
define hidden noundef ptr @_ZN17duckdb_libpgquery11palloc0fastEm(i64 noundef %0) #0 {
  %2 = alloca i64, align 8
  store i64 %0, ptr %2, align 8, !tbaa !3
  %3 = load i64, ptr %2, align 8, !tbaa !3
  %4 = call noundef ptr @_ZN17duckdb_libpgquery6pallocEm(i64 noundef %3)
  ret ptr %4
}

; Function Attrs: mustprogress uwtable
define hidden noundef ptr @_ZN17duckdb_libpgquery7newNodeEmNS_9PGNodeTagE(i64 noundef %0, i32 noundef %1) #0 {
  %3 = alloca i64, align 8
  %4 = alloca i32, align 4
  %5 = alloca ptr, align 8
  store i64 %0, ptr %3, align 8, !tbaa !3
  store i32 %1, ptr %4, align 4, !tbaa !50
  call void @llvm.lifetime.start.p0(i64 8, ptr %5) #13
  %6 = load i64, ptr %3, align 8, !tbaa !3
  %7 = call noundef ptr @_ZN17duckdb_libpgquery11palloc0fastEm(i64 noundef %6)
  store ptr %7, ptr %5, align 8, !tbaa !46
  %8 = load i32, ptr %4, align 4, !tbaa !50
  %9 = load ptr, ptr %5, align 8, !tbaa !46
  %10 = getelementptr inbounds nuw %"struct.duckdb_libpgquery::PGNode", ptr %9, i32 0, i32 0
  store i32 %8, ptr %10, align 4, !tbaa !52
  %11 = load ptr, ptr %5, align 8, !tbaa !46
  call void @llvm.lifetime.end.p0(i64 8, ptr %5) #13
  ret ptr %11
}