; Function Attrs: mustprogress uwtable
define hidden noundef nonnull ptr @_ZN17duckdb_libpgquery7newNodeEmNS_9PGNodeTagE(i64 noundef %0, i32 noundef %1) local_unnamed_addr #0 {
  %3 = add i64 %0, 15
  %4 = and i64 %3, -8
  %5 = tail call align 8 ptr @llvm.threadlocal.address.p0(ptr align 8 @_ZN17duckdb_libpgqueryL15pg_parser_stateE)
  %6 = getelementptr inbounds nuw i8, ptr %5, i64 8200
  %7 = load i64, ptr %6, align 8, !tbaa !3
  %8 = add i64 %7, %4
  %9 = icmp ugt i64 %8, 10240
  br i1 %9, label %10, label %_ZN17duckdb_libpgquery11palloc0fastEm.exit

10:                                               ; preds = %2
  tail call fastcc void @_ZN17duckdb_libpgqueryL12allocate_newEPNS_19pg_parser_state_strEm(ptr noundef %5, i64 noundef %4)
  %.pre.i.i = load i64, ptr %6, align 8, !tbaa !3
  br label %_ZN17duckdb_libpgquery11palloc0fastEm.exit

_ZN17duckdb_libpgquery11palloc0fastEm.exit:       ; preds = %2, %10
  %11 = phi i64 [ %.pre.i.i, %10 ], [ %7, %2 ]
  %12 = getelementptr inbounds nuw i8, ptr %5, i64 8216
  %13 = load ptr, ptr %12, align 8, !tbaa !11
  %14 = getelementptr inbounds nuw i8, ptr %5, i64 8208
  %15 = load i64, ptr %14, align 8, !tbaa !12
  %16 = getelementptr ptr, ptr %13, i64 %15
  %17 = getelementptr i8, ptr %16, i64 -8
  %18 = load ptr, ptr %17, align 8, !tbaa !13
  %19 = getelementptr inbounds nuw i8, ptr %18, i64 %11
  store i64 %0, ptr %19, align 1
  %20 = getelementptr inbounds nuw i8, ptr %19, i64 8
  tail call void @llvm.memset.p0.i64(ptr nonnull align 1 %20, i8 0, i64 %0, i1 false)
  %21 = load i64, ptr %6, align 8, !tbaa !3
  %22 = add i64 %21, %4
  store i64 %22, ptr %6, align 8, !tbaa !3
  store i32 %1, ptr %20, align 4, !tbaa !32
  ret ptr %20
}